; Function Attrs: nounwind uwtable
define void @png_set_IHDR(ptr noalias noundef %0, ptr noalias noundef %1, i32 noundef %2, i32 noundef %3, i32 noundef %4, i32 noundef %5, i32 noundef %6, i32 noundef %7, i32 noundef %8) local_unnamed_addr #2 {
  %10 = icmp eq ptr %0, null
  %11 = icmp eq ptr %1, null
  %or.cond = or i1 %10, %11
  br i1 %or.cond, label %57, label %12

12:                                               ; preds = %9
  store i32 %2, ptr %1, align 8
  %13 = getelementptr inbounds i8, ptr %1, i64 4
  store i32 %3, ptr %13, align 4
  %14 = trunc i32 %4 to i8
  %15 = getelementptr inbounds i8, ptr %1, i64 36
  store i8 %14, ptr %15, align 4
  %16 = trunc i32 %5 to i8
  %17 = getelementptr inbounds i8, ptr %1, i64 37
  store i8 %16, ptr %17, align 1
  %18 = trunc i32 %7 to i8
  %19 = getelementptr inbounds i8, ptr %1, i64 38
  store i8 %18, ptr %19, align 2
  %20 = trunc i32 %8 to i8
  %21 = getelementptr inbounds i8, ptr %1, i64 39
  store i8 %20, ptr %21, align 1
  %22 = trunc i32 %6 to i8
  %23 = getelementptr inbounds i8, ptr %1, i64 40
  store i8 %22, ptr %23, align 8
  %24 = and i32 %4, 255
  %25 = and i32 %5, 255
  %26 = and i32 %6, 255
  %27 = and i32 %7, 255
  %28 = and i32 %8, 255
  tail call void @png_check_IHDR(ptr noundef nonnull %0, i32 noundef %2, i32 noundef %3, i32 noundef %24, i32 noundef %25, i32 noundef %26, i32 noundef %27, i32 noundef %28) #12
  %29 = load i8, ptr %17, align 1
  %30 = icmp eq i8 %29, 3
  br i1 %30, label %.thread, label %32

.thread:                                          ; preds = %12
  %31 = getelementptr inbounds i8, ptr %1, i64 41
  store i8 1, ptr %31, align 1
  br label %38

32:                                               ; preds = %12
  %33 = and i8 %29, 2
  %spec.select = or disjoint i8 %33, 1
  %34 = getelementptr inbounds i8, ptr %1, i64 41
  store i8 %spec.select, ptr %34, align 1
  %35 = and i8 %29, 4
  %.not42 = icmp eq i8 %35, 0
  br i1 %.not42, label %38, label %36

36:                                               ; preds = %32
  %37 = add nuw nsw i8 %33, 2
  store i8 %37, ptr %34, align 1
  br label %38

38:                                               ; preds = %.thread, %36, %32
  %39 = phi i8 [ 1, %.thread ], [ %37, %36 ], [ %spec.select, %32 ]
  %40 = load i8, ptr %15, align 4
  %41 = mul i8 %40, %39
  %42 = getelementptr inbounds i8, ptr %1, i64 42
  store i8 %41, ptr %42, align 2
  %43 = icmp ugt i8 %41, 7
  %44 = zext i32 %2 to i64
  br i1 %43, label %45, label %49

45:                                               ; preds = %38
  %46 = lshr i8 %41, 3
  %47 = zext nneg i8 %46 to i64
  %48 = mul nuw nsw i64 %47, %44
  br label %54

49:                                               ; preds = %38
  %50 = zext nneg i8 %41 to i64
  %51 = mul nuw nsw i64 %50, %44
  %52 = add nuw nsw i64 %51, 7
  %53 = lshr i64 %52, 3
  br label %54

54:                                               ; preds = %49, %45
  %55 = phi i64 [ %48, %45 ], [ %53, %49 ]
  %56 = getelementptr inbounds i8, ptr %1, i64 16
  store i64 %55, ptr %56, align 8
  br label %57

57:                                               ; preds = %9, %54
  ret void
}